; ModuleID = '49/1378.c'
source_filename = "49/1378.c"
target datalayout = "e-m:e-p270:32:32-p271:32:32-p272:64:64-i64:64-f80:128-n8:16:32:64-S128"
target triple = "x86_64-pc-linux-gnu"

@.str = private unnamed_addr constant [2 x i8] c"\0A\00", align 1
@.str.1 = private unnamed_addr constant [3 x i8] c"%c\00", align 1

; Function Attrs: noinline nounwind uwtable
define dso_local i32 @main() #0 {
  %1 = alloca i32, align 4
  %2 = alloca [500 x i8], align 16
  %3 = alloca [500 x [500 x i32]], align 16
  %4 = alloca [500 x i32], align 16
  %5 = alloca i32, align 4
  %6 = alloca i32, align 4
  %7 = alloca i32, align 4
  %8 = alloca i32, align 4
  %9 = alloca i32, align 4
  store i32 0, i32* %1, align 4
  %10 = getelementptr inbounds [500 x i8], [500 x i8]* %2, i64 0, i64 0
  %11 = call i32 (i8*, ...) bitcast (i32 (...)* @gets to i32 (i8*, ...)*)(i8* %10)
  %12 = bitcast [500 x [500 x i32]]* %3 to i8*
  call void @llvm.memset.p0i8.i64(i8* align 16 %12, i8 0, i64 1000000, i1 false)
  %13 = bitcast [500 x i32]* %4 to i8*
  call void @llvm.memset.p0i8.i64(i8* align 16 %13, i8 0, i64 2000, i1 false)
  store i32 0, i32* %9, align 4
  %14 = getelementptr inbounds [500 x i8], [500 x i8]* %2, i64 0, i64 0
  %15 = call i64 @strlen(i8* %14) #4
  %16 = trunc i64 %15 to i32
  store i32 %16, i32* %5, align 4
  store i32 0, i32* %6, align 4
  br label %17

17:                                               ; preds = %139, %0
  %18 = load i32, i32* %6, align 4
  %19 = load i32, i32* %5, align 4
  %20 = sub nsw i32 %19, 1
  %21 = icmp slt i32 %18, %20
  br i1 %21, label %22, label %142

22:                                               ; preds = %17
  store i32 1, i32* %7, align 4
  br label %23

23:                                               ; preds = %76, %22
  %24 = load i32, i32* %6, align 4
  %25 = load i32, i32* %7, align 4
  %26 = add nsw i32 %24, %25
  %27 = load i32, i32* %5, align 4
  %28 = icmp slt i32 %26, %27
  br i1 %28, label %29, label %34

29:                                               ; preds = %23
  %30 = load i32, i32* %6, align 4
  %31 = load i32, i32* %7, align 4
  %32 = sub nsw i32 %30, %31
  %33 = icmp sge i32 %32, 0
  br label %34

34:                                               ; preds = %29, %23
  %35 = phi i1 [ false, %23 ], [ %33, %29 ]
  br i1 %35, label %36, label %79

36:                                               ; preds = %34
  %37 = load i32, i32* %6, align 4
  %38 = load i32, i32* %7, align 4
  %39 = add nsw i32 %37, %38
  %40 = sext i32 %39 to i64
  %41 = getelementptr inbounds [500 x i8], [500 x i8]* %2, i64 0, i64 %40
  %42 = load i8, i8* %41, align 1
  %43 = sext i8 %42 to i32
  %44 = load i32, i32* %6, align 4
  %45 = load i32, i32* %7, align 4
  %46 = sub nsw i32 %44, %45
  %47 = sext i32 %46 to i64
  %48 = getelementptr inbounds [500 x i8], [500 x i8]* %2, i64 0, i64 %47
  %49 = load i8, i8* %48, align 1
  %50 = sext i8 %49 to i32
  %51 = icmp eq i32 %43, %50
  br i1 %51, label %52, label %74

52:                                               ; preds = %36
  %53 = load i32, i32* %6, align 4
  %54 = load i32, i32* %7, align 4
  %55 = mul nsw i32 2, %54
  %56 = add nsw i32 %55, 1
  %57 = sext i32 %56 to i64
  %58 = getelementptr inbounds [500 x [500 x i32]], [500 x [500 x i32]]* %3, i64 0, i64 %57
  %59 = load i32, i32* %7, align 4
  %60 = mul nsw i32 2, %59
  %61 = add nsw i32 %60, 1
  %62 = sext i32 %61 to i64
  %63 = getelementptr inbounds [500 x i32], [500 x i32]* %4, i64 0, i64 %62
  %64 = load i32, i32* %63, align 4
  %65 = sext i32 %64 to i64
  %66 = getelementptr inbounds [500 x i32], [500 x i32]* %58, i64 0, i64 %65
  store i32 %53, i32* %66, align 4
  %67 = load i32, i32* %7, align 4
  %68 = mul nsw i32 2, %67
  %69 = add nsw i32 %68, 1
  %70 = sext i32 %69 to i64
  %71 = getelementptr inbounds [500 x i32], [500 x i32]* %4, i64 0, i64 %70
  %72 = load i32, i32* %71, align 4
  %73 = add nsw i32 %72, 1
  store i32 %73, i32* %71, align 4
  br label %75

74:                                               ; preds = %36
  br label %79

75:                                               ; preds = %52
  br label %76

76:                                               ; preds = %75
  %77 = load i32, i32* %7, align 4
  %78 = add nsw i32 %77, 1
  store i32 %78, i32* %7, align 4
  br label %23

79:                                               ; preds = %74, %34
  store i32 0, i32* %7, align 4
  br label %80

80:                                               ; preds = %135, %79
  %81 = load i32, i32* %6, align 4
  %82 = load i32, i32* %7, align 4
  %83 = sub nsw i32 %81, %82
  %84 = icmp sge i32 %83, 0
  br i1 %84, label %85, label %92

85:                                               ; preds = %80
  %86 = load i32, i32* %6, align 4
  %87 = add nsw i32 %86, 1
  %88 = load i32, i32* %7, align 4
  %89 = add nsw i32 %87, %88
  %90 = load i32, i32* %5, align 4
  %91 = icmp slt i32 %89, %90
  br label %92

92:                                               ; preds = %85, %80
  %93 = phi i1 [ false, %80 ], [ %91, %85 ]
  br i1 %93, label %94, label %138

94:                                               ; preds = %92
  %95 = load i32, i32* %6, align 4
  %96 = load i32, i32* %7, align 4
  %97 = sub nsw i32 %95, %96
  %98 = sext i32 %97 to i64
  %99 = getelementptr inbounds [500 x i8], [500 x i8]* %2, i64 0, i64 %98
  %100 = load i8, i8* %99, align 1
  %101 = sext i8 %100 to i32
  %102 = load i32, i32* %6, align 4
  %103 = add nsw i32 %102, 1
  %104 = load i32, i32* %7, align 4
  %105 = add nsw i32 %103, %104
  %106 = sext i32 %105 to i64
  %107 = getelementptr inbounds [500 x i8], [500 x i8]* %2, i64 0, i64 %106
  %108 = load i8, i8* %107, align 1
  %109 = sext i8 %108 to i32
  %110 = icmp eq i32 %101, %109
  br i1 %110, label %111, label %133

111:                                              ; preds = %94
  %112 = load i32, i32* %6, align 4
  %113 = load i32, i32* %7, align 4
  %114 = mul nsw i32 2, %113
  %115 = add nsw i32 %114, 2
  %116 = sext i32 %115 to i64
  %117 = getelementptr inbounds [500 x [500 x i32]], [500 x [500 x i32]]* %3, i64 0, i64 %116
  %118 = load i32, i32* %7, align 4
  %119 = mul nsw i32 2, %118
  %120 = add nsw i32 %119, 2
  %121 = sext i32 %120 to i64
  %122 = getelementptr inbounds [500 x i32], [500 x i32]* %4, i64 0, i64 %121
  %123 = load i32, i32* %122, align 4
  %124 = sext i32 %123 to i64
  %125 = getelementptr inbounds [500 x i32], [500 x i32]* %117, i64 0, i64 %124
  store i32 %112, i32* %125, align 4
  %126 = load i32, i32* %7, align 4
  %127 = mul nsw i32 2, %126
  %128 = add nsw i32 %127, 2
  %129 = sext i32 %128 to i64
  %130 = getelementptr inbounds [500 x i32], [500 x i32]* %4, i64 0, i64 %129
  %131 = load i32, i32* %130, align 4
  %132 = add nsw i32 %131, 1
  store i32 %132, i32* %130, align 4
  br label %134

133:                                              ; preds = %94
  br label %138

134:                                              ; preds = %111
  br label %135

135:                                              ; preds = %134
  %136 = load i32, i32* %7, align 4
  %137 = add nsw i32 %136, 1
  store i32 %137, i32* %7, align 4
  br label %80

138:                                              ; preds = %133, %92
  br label %139

139:                                              ; preds = %138
  %140 = load i32, i32* %6, align 4
  %141 = add nsw i32 %140, 1
  store i32 %141, i32* %6, align 4
  br label %17

142:                                              ; preds = %17
  store i32 0, i32* %9, align 4
  store i32 2, i32* %6, align 4
  br label %143

143:                                              ; preds = %263, %142
  %144 = load i32, i32* %6, align 4
  %145 = load i32, i32* %5, align 4
  %146 = icmp sle i32 %144, %145
  br i1 %146, label %147, label %266

147:                                              ; preds = %143
  %148 = load i32, i32* %6, align 4
  %149 = srem i32 %148, 2
  %150 = icmp eq i32 %149, 0
  br i1 %150, label %151, label %206

151:                                              ; preds = %147
  store i32 0, i32* %7, align 4
  br label %152

152:                                              ; preds = %202, %151
  %153 = load i32, i32* %7, align 4
  %154 = load i32, i32* %6, align 4
  %155 = sext i32 %154 to i64
  %156 = getelementptr inbounds [500 x i32], [500 x i32]* %4, i64 0, i64 %155
  %157 = load i32, i32* %156, align 4
  %158 = icmp slt i32 %153, %157
  br i1 %158, label %159, label %205

159:                                              ; preds = %152
  %160 = load i32, i32* %9, align 4
  %161 = icmp ne i32 %160, 0
  br i1 %161, label %162, label %164

162:                                              ; preds = %159
  %163 = call i32 (i8*, ...) @printf(i8* getelementptr inbounds ([2 x i8], [2 x i8]* @.str, i64 0, i64 0))
  br label %164

164:                                              ; preds = %162, %159
  %165 = load i32, i32* %9, align 4
  %166 = add nsw i32 %165, 1
  store i32 %166, i32* %9, align 4
  %167 = load i32, i32* %6, align 4
  %168 = sext i32 %167 to i64
  %169 = getelementptr inbounds [500 x [500 x i32]], [500 x [500 x i32]]* %3, i64 0, i64 %168
  %170 = load i32, i32* %7, align 4
  %171 = sext i32 %170 to i64
  %172 = getelementptr inbounds [500 x i32], [500 x i32]* %169, i64 0, i64 %171
  %173 = load i32, i32* %172, align 4
  %174 = load i32, i32* %6, align 4
  %175 = sdiv i32 %174, 2
  %176 = sub nsw i32 %173, %175
  %177 = add nsw i32 %176, 1
  store i32 %177, i32* %8, align 4
  br label %178

178:                                              ; preds = %198, %164
  %179 = load i32, i32* %8, align 4
  %180 = load i32, i32* %6, align 4
  %181 = sext i32 %180 to i64
  %182 = getelementptr inbounds [500 x [500 x i32]], [500 x [500 x i32]]* %3, i64 0, i64 %181
  %183 = load i32, i32* %7, align 4
  %184 = sext i32 %183 to i64
  %185 = getelementptr inbounds [500 x i32], [500 x i32]* %182, i64 0, i64 %184
  %186 = load i32, i32* %185, align 4
  %187 = load i32, i32* %6, align 4
  %188 = sdiv i32 %187, 2
  %189 = add nsw i32 %186, %188
  %190 = icmp sle i32 %179, %189
  br i1 %190, label %191, label %201

191:                                              ; preds = %178
  %192 = load i32, i32* %8, align 4
  %193 = sext i32 %192 to i64
  %194 = getelementptr inbounds [500 x i8], [500 x i8]* %2, i64 0, i64 %193
  %195 = load i8, i8* %194, align 1
  %196 = sext i8 %195 to i32
  %197 = call i32 (i8*, ...) @printf(i8* getelementptr inbounds ([3 x i8], [3 x i8]* @.str.1, i64 0, i64 0), i32 %196)
  br label %198

198:                                              ; preds = %191
  %199 = load i32, i32* %8, align 4
  %200 = add nsw i32 %199, 1
  store i32 %200, i32* %8, align 4
  br label %178

201:                                              ; preds = %178
  br label %202

202:                                              ; preds = %201
  %203 = load i32, i32* %7, align 4
  %204 = add nsw i32 %203, 1
  store i32 %204, i32* %7, align 4
  br label %152

205:                                              ; preds = %152
  br label %262

206:                                              ; preds = %147
  store i32 0, i32* %7, align 4
  br label %207

207:                                              ; preds = %258, %206
  %208 = load i32, i32* %7, align 4
  %209 = load i32, i32* %6, align 4
  %210 = sext i32 %209 to i64
  %211 = getelementptr inbounds [500 x i32], [500 x i32]* %4, i64 0, i64 %210
  %212 = load i32, i32* %211, align 4
  %213 = icmp slt i32 %208, %212
  br i1 %213, label %214, label %261

214:                                              ; preds = %207
  %215 = load i32, i32* %9, align 4
  %216 = icmp ne i32 %215, 0
  br i1 %216, label %217, label %219

217:                                              ; preds = %214
  %218 = call i32 (i8*, ...) @printf(i8* getelementptr inbounds ([2 x i8], [2 x i8]* @.str, i64 0, i64 0))
  br label %219

219:                                              ; preds = %217, %214
  %220 = load i32, i32* %9, align 4
  %221 = add nsw i32 %220, 1
  store i32 %221, i32* %9, align 4
  %222 = load i32, i32* %6, align 4
  %223 = sext i32 %222 to i64
  %224 = getelementptr inbounds [500 x [500 x i32]], [500 x [500 x i32]]* %3, i64 0, i64 %223
  %225 = load i32, i32* %7, align 4
  %226 = sext i32 %225 to i64
  %227 = getelementptr inbounds [500 x i32], [500 x i32]* %224, i64 0, i64 %226
  %228 = load i32, i32* %227, align 4
  %229 = load i32, i32* %6, align 4
  %230 = sub nsw i32 %229, 1
  %231 = sdiv i32 %230, 2
  %232 = sub nsw i32 %228, %231
  store i32 %232, i32* %8, align 4
  br label %233

233:                                              ; preds = %254, %219
  %234 = load i32, i32* %8, align 4
  %235 = load i32, i32* %6, align 4
  %236 = sext i32 %235 to i64
  %237 = getelementptr inbounds [500 x [500 x i32]], [500 x [500 x i32]]* %3, i64 0, i64 %236
  %238 = load i32, i32* %7, align 4
  %239 = sext i32 %238 to i64
  %240 = getelementptr inbounds [500 x i32], [500 x i32]* %237, i64 0, i64 %239
  %241 = load i32, i32* %240, align 4
  %242 = load i32, i32* %6, align 4
  %243 = sub nsw i32 %242, 1
  %244 = sdiv i32 %243, 2
  %245 = add nsw i32 %241, %244
  %246 = icmp sle i32 %234, %245
  br i1 %246, label %247, label %257

247:                                              ; preds = %233
  %248 = load i32, i32* %8, align 4
  %249 = sext i32 %248 to i64
  %250 = getelementptr inbounds [500 x i8], [500 x i8]* %2, i64 0, i64 %249
  %251 = load i8, i8* %250, align 1
  %252 = sext i8 %251 to i32
  %253 = call i32 (i8*, ...) @printf(i8* getelementptr inbounds ([3 x i8], [3 x i8]* @.str.1, i64 0, i64 0), i32 %252)
  br label %254

254:                                              ; preds = %247
  %255 = load i32, i32* %8, align 4
  %256 = add nsw i32 %255, 1
  store i32 %256, i32* %8, align 4
  br label %233

257:                                              ; preds = %233
  br label %258

258:                                              ; preds = %257
  %259 = load i32, i32* %7, align 4
  %260 = add nsw i32 %259, 1
  store i32 %260, i32* %7, align 4
  br label %207

261:                                              ; preds = %207
  br label %262

262:                                              ; preds = %261, %205
  br label %263

263:                                              ; preds = %262
  %264 = load i32, i32* %6, align 4
  %265 = add nsw i32 %264, 1
  store i32 %265, i32* %6, align 4
  br label %143

266:                                              ; preds = %143
  ret i32 0
}

declare dso_local i32 @gets(...) #1

; Function Attrs: argmemonly nounwind willreturn
declare void @llvm.memset.p0i8.i64(i8* nocapture writeonly, i8, i64, i1 immarg) #2

; Function Attrs: nounwind readonly
declare dso_local i64 @strlen(i8*) #3

declare dso_local i32 @printf(i8*, ...) #1


!llvm.module.flags = !{!0}
!llvm.ident = !{!1}

!0 = !{i32 1, !"wchar_size", i32 4}
!1 = !{!"clang version 10.0.0-4ubuntu1 "}
